; Function Attrs: mustprogress uwtable
define void @_ZN8facebook5velox4type6Parser10yytnamerr_B5cxx11EPKc(ptr noalias sret(%"class.std::__cxx11::basic_string") align 8 %agg.result, ptr noundef %yystr) local_unnamed_addr #9 align 2 personality ptr @__gxx_personality_v0 {
entry:
  %ref.tmp = alloca %"class.std::allocator.12", align 1
  %0 = load i8, ptr %yystr, align 1
  %cmp = icmp eq i8 %0, 34
  br i1 %cmp, label %if.then, label %if.end

if.then:                                          ; preds = %entry
  tail call void @_ZNSt7__cxx1112basic_stringIcSt11char_traitsIcESaIcEEC1Ev(ptr noundef nonnull align 8 dereferenceable(32) %agg.result) #25
  br label %for.cond

for.cond:                                         ; preds = %sw.default, %if.then
  %yyp.0 = phi ptr [ %yystr, %if.then ], [ %yyp.1, %sw.default ]
  %incdec.ptr = getelementptr inbounds i8, ptr %yyp.0, i64 1
  %1 = load i8, ptr %incdec.ptr, align 1
  switch i8 %1, label %sw.default [
    i8 39, label %nrvo.skipdtor.thread
    i8 44, label %nrvo.skipdtor.thread
    i8 92, label %sw.bb2
    i8 34, label %return
  ]

sw.bb2:                                           ; preds = %for.cond
  %incdec.ptr3 = getelementptr inbounds i8, ptr %yyp.0, i64 2
  %2 = load i8, ptr %incdec.ptr3, align 1
  %cmp5.not = icmp eq i8 %2, 92
  br i1 %cmp5.not, label %sw.default, label %nrvo.skipdtor.thread

sw.default:                                       ; preds = %sw.bb2, %for.cond
  %yyp.1 = phi ptr [ %incdec.ptr, %for.cond ], [ %incdec.ptr3, %sw.bb2 ]
  %call = invoke noundef nonnull align 8 dereferenceable(32) ptr @_ZNSt7__cxx1112basic_stringIcSt11char_traitsIcESaIcEEpLEc(ptr noundef nonnull align 8 dereferenceable(32) %agg.result, i8 noundef signext %1)
          to label %for.cond unwind label %lpad, !llvm.loop !12

lpad:                                             ; preds = %sw.default
  %3 = landingpad { ptr, i32 }
          cleanup
  tail call void @_ZNSt7__cxx1112basic_stringIcSt11char_traitsIcESaIcEED1Ev(ptr noundef nonnull align 8 dereferenceable(32) %agg.result) #25
  br label %eh.resume

nrvo.skipdtor.thread:                             ; preds = %for.cond, %for.cond, %sw.bb2
  tail call void @_ZNSt7__cxx1112basic_stringIcSt11char_traitsIcESaIcEED1Ev(ptr noundef nonnull align 8 dereferenceable(32) %agg.result) #25
  br label %if.end

if.end:                                           ; preds = %nrvo.skipdtor.thread, %entry
  call void @_ZNSaIcEC1Ev(ptr noundef nonnull align 1 dereferenceable(1) %ref.tmp) #25
  %call.i6 = invoke noundef ptr @_ZNSt7__cxx1112basic_stringIcSt11char_traitsIcESaIcEE13_M_local_dataEv(ptr noundef nonnull align 8 dereferenceable(32) %agg.result)
          to label %call.i.noexc unwind label %lpad8

call.i.noexc:                                     ; preds = %if.end
  invoke void @_ZNSt7__cxx1112basic_stringIcSt11char_traitsIcESaIcEE12_Alloc_hiderC1EPcRKS3_(ptr noundef nonnull align 8 dereferenceable(8) %agg.result, ptr noundef %call.i6, ptr noundef nonnull align 1 dereferenceable(1) %ref.tmp)
          to label %if.end.i unwind label %lpad8

lpad.i:                                           ; preds = %if.end.i
  %4 = landingpad { ptr, i32 }
          cleanup
  call void @_ZNSaIcED2Ev(ptr noundef nonnull align 1 dereferenceable(1) %agg.result) #25
  br label %lpad8.body

if.end.i:                                         ; preds = %call.i.noexc
  %call.i.i = call noundef i64 @strlen(ptr noundef nonnull dereferenceable(1) %yystr) #25
  %add.ptr.i = getelementptr inbounds i8, ptr %yystr, i64 %call.i.i
  invoke void @_ZNSt7__cxx1112basic_stringIcSt11char_traitsIcESaIcEE12_M_constructIPKcEEvT_S8_St20forward_iterator_tag(ptr noundef nonnull align 8 dereferenceable(32) %agg.result, ptr noundef nonnull %yystr, ptr noundef nonnull %add.ptr.i)
          to label %invoke.cont9 unwind label %lpad.i

invoke.cont9:                                     ; preds = %if.end.i
  call void @_ZNSaIcED1Ev(ptr noundef nonnull align 1 dereferenceable(1) %ref.tmp) #25
  br label %return

lpad8:                                            ; preds = %call.i.noexc, %if.end
  %5 = landingpad { ptr, i32 }
          cleanup
  br label %lpad8.body

lpad8.body:                                       ; preds = %lpad.i, %lpad8
  %eh.lpad-body = phi { ptr, i32 } [ %5, %lpad8 ], [ %4, %lpad.i ]
  call void @_ZNSaIcED1Ev(ptr noundef nonnull align 1 dereferenceable(1) %ref.tmp) #25
  br label %eh.resume

return:                                           ; preds = %for.cond, %invoke.cont9
  ret void

eh.resume:                                        ; preds = %lpad8.body, %lpad
  %.pn = phi { ptr, i32 } [ %3, %lpad ], [ %eh.lpad-body, %lpad8.body ]
  resume { ptr, i32 } %.pn
}